target datalayout = "e-m:e-p270:32:32-p271:32:32-p272:64:64-i64:64-i128:128-f80:128-n8:16:32:64-S128"
target triple = "x86_64-pc-linux-gnu"

; Function Attrs: nounwind uwtable
define internal void @vc1_v_s_overlap_c(ptr noundef %0, ptr noundef %1) #1 {
  %3 = alloca ptr, align 8
  %4 = alloca ptr, align 8
  %5 = alloca i32, align 4
  %6 = alloca i32, align 4
  %7 = alloca i32, align 4
  %8 = alloca i32, align 4
  %9 = alloca i32, align 4
  %10 = alloca i32, align 4
  %11 = alloca i32, align 4
  %12 = alloca i32, align 4
  %13 = alloca i32, align 4
  store ptr %0, ptr %3, align 8, !tbaa !36
  store ptr %1, ptr %4, align 8, !tbaa !36
  call void @llvm.lifetime.start.p0(i64 4, ptr %5) #7
  call void @llvm.lifetime.start.p0(i64 4, ptr %6) #7
  call void @llvm.lifetime.start.p0(i64 4, ptr %7) #7
  call void @llvm.lifetime.start.p0(i64 4, ptr %8) #7
  call void @llvm.lifetime.start.p0(i64 4, ptr %9) #7
  call void @llvm.lifetime.start.p0(i64 4, ptr %10) #7
  call void @llvm.lifetime.start.p0(i64 4, ptr %11) #7
  call void @llvm.lifetime.start.p0(i64 4, ptr %12) #7
  store i32 4, ptr %12, align 4, !tbaa !38
  call void @llvm.lifetime.start.p0(i64 4, ptr %13) #7
  store i32 3, ptr %13, align 4, !tbaa !38
  store i32 0, ptr %5, align 4, !tbaa !38
  br label %14

14:                                               ; preds = %92, %2
  %15 = load i32, ptr %5, align 4, !tbaa !38
  %16 = icmp slt i32 %15, 8
  br i1 %16, label %17, label %95

17:                                               ; preds = %14
  %18 = load ptr, ptr %3, align 8, !tbaa !36
  %19 = getelementptr inbounds i16, ptr %18, i64 48
  %20 = load i16, ptr %19, align 2, !tbaa !40
  %21 = sext i16 %20 to i32
  store i32 %21, ptr %6, align 4, !tbaa !38
  %22 = load ptr, ptr %3, align 8, !tbaa !36
  %23 = getelementptr inbounds i16, ptr %22, i64 56
  %24 = load i16, ptr %23, align 2, !tbaa !40
  %25 = sext i16 %24 to i32
  store i32 %25, ptr %7, align 4, !tbaa !38
  %26 = load ptr, ptr %4, align 8, !tbaa !36
  %27 = getelementptr inbounds i16, ptr %26, i64 0
  %28 = load i16, ptr %27, align 2, !tbaa !40
  %29 = sext i16 %28 to i32
  store i32 %29, ptr %8, align 4, !tbaa !38
  %30 = load ptr, ptr %4, align 8, !tbaa !36
  %31 = getelementptr inbounds i16, ptr %30, i64 8
  %32 = load i16, ptr %31, align 2, !tbaa !40
  %33 = sext i16 %32 to i32
  store i32 %33, ptr %9, align 4, !tbaa !38
  %34 = load i32, ptr %6, align 4, !tbaa !38
  %35 = load i32, ptr %9, align 4, !tbaa !38
  %36 = sub nsw i32 %34, %35
  store i32 %36, ptr %10, align 4, !tbaa !38
  %37 = load i32, ptr %6, align 4, !tbaa !38
  %38 = load i32, ptr %9, align 4, !tbaa !38
  %39 = sub nsw i32 %37, %38
  %40 = load i32, ptr %7, align 4, !tbaa !38
  %41 = add nsw i32 %39, %40
  %42 = load i32, ptr %8, align 4, !tbaa !38
  %43 = sub nsw i32 %41, %42
  store i32 %43, ptr %11, align 4, !tbaa !38
  %44 = load i32, ptr %6, align 4, !tbaa !38
  %45 = mul nsw i32 %44, 8
  %46 = load i32, ptr %10, align 4, !tbaa !38
  %47 = sub nsw i32 %45, %46
  %48 = load i32, ptr %12, align 4, !tbaa !38
  %49 = add nsw i32 %47, %48
  %50 = ashr i32 %49, 3
  %51 = trunc i32 %50 to i16
  %52 = load ptr, ptr %3, align 8, !tbaa !36
  %53 = getelementptr inbounds i16, ptr %52, i64 48
  store i16 %51, ptr %53, align 2, !tbaa !40
  %54 = load i32, ptr %7, align 4, !tbaa !38
  %55 = mul nsw i32 %54, 8
  %56 = load i32, ptr %11, align 4, !tbaa !38
  %57 = sub nsw i32 %55, %56
  %58 = load i32, ptr %13, align 4, !tbaa !38
  %59 = add nsw i32 %57, %58
  %60 = ashr i32 %59, 3
  %61 = trunc i32 %60 to i16
  %62 = load ptr, ptr %3, align 8, !tbaa !36
  %63 = getelementptr inbounds i16, ptr %62, i64 56
  store i16 %61, ptr %63, align 2, !tbaa !40
  %64 = load i32, ptr %8, align 4, !tbaa !38
  %65 = mul nsw i32 %64, 8
  %66 = load i32, ptr %11, align 4, !tbaa !38
  %67 = add nsw i32 %65, %66
  %68 = load i32, ptr %12, align 4, !tbaa !38
  %69 = add nsw i32 %67, %68
  %70 = ashr i32 %69, 3
  %71 = trunc i32 %70 to i16
  %72 = load ptr, ptr %4, align 8, !tbaa !36
  %73 = getelementptr inbounds i16, ptr %72, i64 0
  store i16 %71, ptr %73, align 2, !tbaa !40
  %74 = load i32, ptr %9, align 4, !tbaa !38
  %75 = mul nsw i32 %74, 8
  %76 = load i32, ptr %10, align 4, !tbaa !38
  %77 = add nsw i32 %75, %76
  %78 = load i32, ptr %13, align 4, !tbaa !38
  %79 = add nsw i32 %77, %78
  %80 = ashr i32 %79, 3
  %81 = trunc i32 %80 to i16
  %82 = load ptr, ptr %4, align 8, !tbaa !36
  %83 = getelementptr inbounds i16, ptr %82, i64 8
  store i16 %81, ptr %83, align 2, !tbaa !40
  %84 = load ptr, ptr %4, align 8, !tbaa !36
  %85 = getelementptr inbounds nuw i16, ptr %84, i32 1
  store ptr %85, ptr %4, align 8, !tbaa !36
  %86 = load ptr, ptr %3, align 8, !tbaa !36
  %87 = getelementptr inbounds nuw i16, ptr %86, i32 1
  store ptr %87, ptr %3, align 8, !tbaa !36
  %88 = load i32, ptr %13, align 4, !tbaa !38
  %89 = sub nsw i32 7, %88
  store i32 %89, ptr %13, align 4, !tbaa !38
  %90 = load i32, ptr %12, align 4, !tbaa !38
  %91 = sub nsw i32 7, %90
  store i32 %91, ptr %12, align 4, !tbaa !38
  br label %92

92:                                               ; preds = %17
  %93 = load i32, ptr %5, align 4, !tbaa !38
  %94 = add nsw i32 %93, 1
  store i32 %94, ptr %5, align 4, !tbaa !38
  br label %14, !llvm.loop !63

95:                                               ; preds = %14
  call void @llvm.lifetime.end.p0(i64 4, ptr %13) #7
  call void @llvm.lifetime.end.p0(i64 4, ptr %12) #7
  call void @llvm.lifetime.end.p0(i64 4, ptr %11) #7
  call void @llvm.lifetime.end.p0(i64 4, ptr %10) #7
  call void @llvm.lifetime.end.p0(i64 4, ptr %9) #7
  call void @llvm.lifetime.end.p0(i64 4, ptr %8) #7
  call void @llvm.lifetime.end.p0(i64 4, ptr %7) #7
  call void @llvm.lifetime.end.p0(i64 4, ptr %6) #7
  call void @llvm.lifetime.end.p0(i64 4, ptr %5) #7
  ret void
}