; Function Attrs: nofree norecurse nosync nounwind memory(argmem: readwrite) uwtable
define internal void @vc1_v_s_overlap_c(ptr noundef captures(none) %0, ptr noundef captures(none) %1) #1 {
  br label %3

3:                                                ; preds = %2, %3
  %.041 = phi i32 [ 3, %2 ], [ %39, %3 ]
  %.03140 = phi i32 [ 4, %2 ], [ %40, %3 ]
  %.03239 = phi ptr [ %0, %2 ], [ %38, %3 ]
  %.03338 = phi ptr [ %1, %2 ], [ %37, %3 ]
  %.03437 = phi i32 [ 0, %2 ], [ %41, %3 ]
  %4 = getelementptr inbounds nuw i8, ptr %.03239, i64 96
  %5 = load i16, ptr %4, align 2, !tbaa !34
  %6 = sext i16 %5 to i32
  %7 = getelementptr inbounds nuw i8, ptr %.03239, i64 112
  %8 = load i16, ptr %7, align 2, !tbaa !34
  %9 = sext i16 %8 to i32
  %10 = load i16, ptr %.03338, align 2, !tbaa !34
  %11 = sext i16 %10 to i32
  %12 = getelementptr inbounds nuw i8, ptr %.03338, i64 16
  %13 = load i16, ptr %12, align 2, !tbaa !34
  %14 = sext i16 %13 to i32
  %15 = sub nsw i32 %6, %14
  %16 = sub nsw i32 %9, %11
  %17 = add nsw i32 %16, %15
  %18 = shl nsw i32 %6, 3
  %19 = add nsw i32 %18, %.03140
  %20 = sub nsw i32 %19, %15
  %21 = lshr i32 %20, 3
  %22 = trunc i32 %21 to i16
  store i16 %22, ptr %4, align 2, !tbaa !34
  %23 = shl nsw i32 %9, 3
  %24 = add nsw i32 %23, %.041
  %25 = sub nsw i32 %24, %17
  %26 = lshr i32 %25, 3
  %27 = trunc i32 %26 to i16
  store i16 %27, ptr %7, align 2, !tbaa !34
  %28 = shl nsw i32 %11, 3
  %29 = add nsw i32 %28, %.03140
  %30 = add nsw i32 %29, %17
  %31 = lshr i32 %30, 3
  %32 = trunc i32 %31 to i16
  store i16 %32, ptr %.03338, align 2, !tbaa !34
  %33 = add nsw i32 %15, %.041
  %34 = lshr i32 %33, 3
  %35 = trunc i32 %34 to i16
  %36 = add i16 %13, %35
  store i16 %36, ptr %12, align 2, !tbaa !34
  %37 = getelementptr inbounds nuw i8, ptr %.03338, i64 2
  %38 = getelementptr inbounds nuw i8, ptr %.03239, i64 2
  %39 = xor i32 %.041, 7
  %40 = xor i32 %.03140, 7
  %41 = add nuw nsw i32 %.03437, 1
  %exitcond.not = icmp eq i32 %41, 8
  br i1 %exitcond.not, label %42, label %3, !llvm.loop !53

42:                                               ; preds = %3
  ret void
}